; Function Attrs: mustprogress nofree norecurse nosync nounwind willreturn memory(read, inaccessiblemem: none) uwtable
define range(i32 -2147483648, 2147483647) i32 @Tim_ManBoxOutputLast(ptr noundef readonly captures(none) %0, i32 noundef %1) local_unnamed_addr #3 {
  %.val5 = load ptr, ptr %0, align 8, !tbaa !3
  %3 = getelementptr i8, ptr %.val5, i64 8
  %.val5.val = load ptr, ptr %3, align 8, !tbaa !15
  %4 = sext i32 %1 to i64
  %5 = getelementptr inbounds ptr, ptr %.val5.val, i64 %4
  %6 = load ptr, ptr %5, align 8, !tbaa !19
  %7 = getelementptr inbounds nuw i8, ptr %6, i64 28
  %8 = getelementptr inbounds nuw i8, ptr %6, i64 8
  %9 = load i32, ptr %8, align 4, !tbaa !21
  %10 = sext i32 %9 to i64
  %11 = getelementptr inbounds [0 x i32], ptr %7, i64 0, i64 %10
  %12 = load i32, ptr %11, align 4, !tbaa !26
  %13 = getelementptr inbounds nuw i8, ptr %6, i64 12
  %14 = load i32, ptr %13, align 4, !tbaa !22
  %15 = add i32 %12, -1
  %16 = add i32 %15, %14
  ret i32 %16
}